target datalayout = "e-m:e-p270:32:32-p271:32:32-p272:64:64-i64:64-i128:128-f80:128-n8:16:32:64-S128"
target triple = "x86_64-pc-linux-gnu"

%struct._h460_feature_t = type { i32, ptr, ptr, ptr, ptr, ptr, ptr, ptr, ptr }
%struct._packet_info = type { ptr, ptr, i32, i32, %struct.nstime_t, %struct.nstime_t, %struct.nstime_t, i8, ptr, ptr, ptr, ptr, %struct._address, %struct._address, %struct._address, %struct._address, %struct._address, %struct._address, i32, ptr, i8, [3 x i8], %struct.anon, i32, i32, i32, i32, ptr, i8, ptr, ptr, i16, i16, i32, i32, i16, i32, i32, ptr, ptr, ptr, i8, i8, i16, i16, i16, i32, i16, i16, ptr, ptr, ptr, ptr, ptr, i32, i32 }
%struct.nstime_t = type { i64, i32 }
%struct._address = type { i32, i32, ptr, ptr }
%struct.anon = type { i8, [3 x i8] }
%struct._asn1_ctx_t = type { i32, i32, i8, ptr, ptr, ptr, ptr, ptr, %struct.anon.0, %struct.anon.3, %struct.anon.4, ptr }
%struct.anon.0 = type { i32, i8, i8, i8, ptr, ptr, i32, i32, ptr, ptr, ptr, %union.anon }
%union.anon = type { %struct.anon.1 }
%struct.anon.1 = type { ptr }
%struct.anon.3 = type { ptr, ptr, ptr }
%struct.anon.4 = type { i32, i8, ptr, i32, i32, ptr, ptr, ptr, %union.anon.5 }
%union.anon.5 = type { %struct.anon.6 }
%struct.anon.6 = type { ptr }

@.str.421 = private unnamed_addr constant [29 x i8] c"%s:%u: failed assertion \22%s\22\00", align 1
@.str.422 = private unnamed_addr constant [30 x i8] c"epan/dissectors/packet-h460.c\00", align 1
@.str.423 = private unnamed_addr constant [5 x i8] c"actx\00", align 1
@.str.424 = private unnamed_addr constant [6 x i8] c" - %s\00", align 1
@.str.425 = private unnamed_addr constant [5 x i8] c": %s\00", align 1
@.str.426 = private unnamed_addr constant [15 x i8] c" - unknown(%s)\00", align 1

; Function Attrs: nounwind null_pointer_is_valid sspstrong uwtable
define internal ptr @find_ftr(ptr noundef %0) #4 {
  %2 = alloca ptr, align 8
  %3 = alloca ptr, align 8
  %4 = alloca ptr, align 8
  store ptr %0, ptr %2, align 8
  call void @llvm.lifetime.start.p0(i64 8, ptr %3) #6
  store ptr null, ptr %3, align 8
  call void @llvm.lifetime.start.p0(i64 8, ptr %4) #6
  store ptr @h460_feature_tab, ptr %4, align 8
  br label %5

5:                                                ; preds = %67, %1
  %6 = load ptr, ptr %4, align 8
  %7 = getelementptr inbounds nuw %struct._h460_feature_t, ptr %6, i32 0, i32 1
  %8 = load ptr, ptr %7, align 8
  %9 = icmp ne ptr %8, null
  br i1 %9, label %10, label %70

10:                                               ; preds = %5
  %11 = load ptr, ptr %4, align 8
  %12 = getelementptr inbounds nuw %struct._h460_feature_t, ptr %11, i32 0, i32 4
  %13 = load ptr, ptr %12, align 8
  %14 = icmp ne ptr %13, null
  br i1 %14, label %15, label %24

15:                                               ; preds = %10
  %16 = load ptr, ptr %2, align 8
  %17 = load ptr, ptr %4, align 8
  %18 = getelementptr inbounds nuw %struct._h460_feature_t, ptr %17, i32 0, i32 4
  %19 = load ptr, ptr %18, align 8
  %20 = call i32 @strcmp(ptr noundef %16, ptr noundef %19) #8
  %21 = icmp ne i32 %20, 0
  br i1 %21, label %24, label %22

22:                                               ; preds = %15
  %23 = load ptr, ptr %4, align 8
  store ptr %23, ptr %3, align 8
  br label %70

24:                                               ; preds = %15, %10
  %25 = load ptr, ptr %4, align 8
  %26 = getelementptr inbounds nuw %struct._h460_feature_t, ptr %25, i32 0, i32 5
  %27 = load ptr, ptr %26, align 8
  %28 = icmp ne ptr %27, null
  br i1 %28, label %29, label %38

29:                                               ; preds = %24
  %30 = load ptr, ptr %2, align 8
  %31 = load ptr, ptr %4, align 8
  %32 = getelementptr inbounds nuw %struct._h460_feature_t, ptr %31, i32 0, i32 5
  %33 = load ptr, ptr %32, align 8
  %34 = call i32 @strcmp(ptr noundef %30, ptr noundef %33) #8
  %35 = icmp ne i32 %34, 0
  br i1 %35, label %38, label %36

36:                                               ; preds = %29
  %37 = load ptr, ptr %4, align 8
  store ptr %37, ptr %3, align 8
  br label %70

38:                                               ; preds = %29, %24
  %39 = load ptr, ptr %4, align 8
  %40 = getelementptr inbounds nuw %struct._h460_feature_t, ptr %39, i32 0, i32 6
  %41 = load ptr, ptr %40, align 8
  %42 = icmp ne ptr %41, null
  br i1 %42, label %43, label %52

43:                                               ; preds = %38
  %44 = load ptr, ptr %2, align 8
  %45 = load ptr, ptr %4, align 8
  %46 = getelementptr inbounds nuw %struct._h460_feature_t, ptr %45, i32 0, i32 6
  %47 = load ptr, ptr %46, align 8
  %48 = call i32 @strcmp(ptr noundef %44, ptr noundef %47) #8
  %49 = icmp ne i32 %48, 0
  br i1 %49, label %52, label %50

50:                                               ; preds = %43
  %51 = load ptr, ptr %4, align 8
  store ptr %51, ptr %3, align 8
  br label %70

52:                                               ; preds = %43, %38
  %53 = load ptr, ptr %4, align 8
  %54 = getelementptr inbounds nuw %struct._h460_feature_t, ptr %53, i32 0, i32 7
  %55 = load ptr, ptr %54, align 8
  %56 = icmp ne ptr %55, null
  br i1 %56, label %57, label %66

57:                                               ; preds = %52
  %58 = load ptr, ptr %2, align 8
  %59 = load ptr, ptr %4, align 8
  %60 = getelementptr inbounds nuw %struct._h460_feature_t, ptr %59, i32 0, i32 7
  %61 = load ptr, ptr %60, align 8
  %62 = call i32 @strcmp(ptr noundef %58, ptr noundef %61) #8
  %63 = icmp ne i32 %62, 0
  br i1 %63, label %66, label %64

64:                                               ; preds = %57
  %65 = load ptr, ptr %4, align 8
  store ptr %65, ptr %3, align 8
  br label %70

66:                                               ; preds = %57, %52
  br label %67

67:                                               ; preds = %66
  %68 = load ptr, ptr %4, align 8
  %69 = getelementptr %struct._h460_feature_t, ptr %68, i32 1
  store ptr %69, ptr %4, align 8
  br label %5, !llvm.loop !9

70:                                               ; preds = %64, %50, %36, %22, %5
  %71 = load ptr, ptr %3, align 8
  call void @llvm.lifetime.end.p0(i64 8, ptr %4) #6
  call void @llvm.lifetime.end.p0(i64 8, ptr %3) #6
  ret ptr %71
}

; Function Attrs: null_pointer_is_valid sspstrong uwtable
define internal i32 @dissect_h460_name(ptr noundef %0, ptr noundef %1, ptr noundef %2, ptr noundef %3) #0 {
  %5 = alloca i32, align 4
  %6 = alloca ptr, align 8
  %7 = alloca ptr, align 8
  %8 = alloca ptr, align 8
  %9 = alloca ptr, align 8
  %10 = alloca i32, align 4
  %11 = alloca ptr, align 8
  %12 = alloca ptr, align 8
  %13 = alloca i32, align 4
  store ptr %0, ptr %6, align 8
  store ptr %1, ptr %7, align 8
  store ptr %2, ptr %8, align 8
  store ptr %3, ptr %9, align 8
  call void @llvm.lifetime.start.p0(i64 4, ptr %10) #6
  store i32 0, ptr %10, align 4
  call void @llvm.lifetime.start.p0(i64 8, ptr %11) #6
  call void @llvm.lifetime.start.p0(i64 8, ptr %12) #6
  %14 = load ptr, ptr %9, align 8
  %15 = icmp eq ptr %14, null
  br i1 %15, label %16, label %17

16:                                               ; preds = %4
  store i32 0, ptr %5, align 4
  store i32 1, ptr %13, align 4
  br label %58

17:                                               ; preds = %4
  %18 = load ptr, ptr %9, align 8
  %19 = call ptr @get_asn1_ctx(ptr noundef %18)
  store ptr %19, ptr %11, align 8
  %20 = load ptr, ptr %11, align 8
  %21 = icmp ne ptr %20, null
  br i1 %21, label %22, label %23

22:                                               ; preds = %17
  br label %25

23:                                               ; preds = %17
  call void (ptr, ...) @proto_report_dissector_bug(ptr noundef @.str.421, ptr noundef @.str.422, i32 noundef 2109, ptr noundef @.str.423) #7
  unreachable

24:                                               ; No predecessors!
  br label %25

25:                                               ; preds = %24, %22
  %26 = load ptr, ptr %8, align 8
  %27 = icmp ne ptr %26, null
  br i1 %27, label %28, label %56

28:                                               ; preds = %25
  %29 = load ptr, ptr %7, align 8
  %30 = getelementptr inbounds nuw %struct._packet_info, ptr %29, i32 0, i32 27
  %31 = load ptr, ptr %30, align 8
  %32 = call ptr @find_ftr(ptr noundef %31)
  store ptr %32, ptr %12, align 8
  %33 = load ptr, ptr %12, align 8
  %34 = icmp ne ptr %33, null
  br i1 %34, label %35, label %48

35:                                               ; preds = %28
  %36 = load ptr, ptr %11, align 8
  %37 = getelementptr inbounds nuw %struct._asn1_ctx_t, ptr %36, i32 0, i32 4
  %38 = load ptr, ptr %37, align 8
  %39 = load ptr, ptr %12, align 8
  %40 = getelementptr inbounds nuw %struct._h460_feature_t, ptr %39, i32 0, i32 2
  %41 = load ptr, ptr %40, align 8
  call void (ptr, ptr, ...) @proto_item_append_text(ptr noundef %38, ptr noundef @.str.424, ptr noundef %41)
  %42 = load ptr, ptr %8, align 8
  %43 = call ptr @proto_tree_get_parent(ptr noundef %42)
  %44 = call ptr @proto_item_get_parent(ptr noundef %43)
  %45 = load ptr, ptr %12, align 8
  %46 = getelementptr inbounds nuw %struct._h460_feature_t, ptr %45, i32 0, i32 2
  %47 = load ptr, ptr %46, align 8
  call void (ptr, ptr, ...) @proto_item_append_text(ptr noundef %44, ptr noundef @.str.425, ptr noundef %47)
  br label %55

48:                                               ; preds = %28
  %49 = load ptr, ptr %11, align 8
  %50 = getelementptr inbounds nuw %struct._asn1_ctx_t, ptr %49, i32 0, i32 4
  %51 = load ptr, ptr %50, align 8
  %52 = load ptr, ptr %7, align 8
  %53 = getelementptr inbounds nuw %struct._packet_info, ptr %52, i32 0, i32 27
  %54 = load ptr, ptr %53, align 8
  call void (ptr, ptr, ...) @proto_item_append_text(ptr noundef %51, ptr noundef @.str.426, ptr noundef %54)
  br label %55

55:                                               ; preds = %48, %35
  br label %56

56:                                               ; preds = %55, %25
  %57 = load i32, ptr %10, align 4
  store i32 %57, ptr %5, align 4
  store i32 1, ptr %13, align 4
  br label %58

58:                                               ; preds = %56, %16
  call void @llvm.lifetime.end.p0(i64 8, ptr %12) #6
  call void @llvm.lifetime.end.p0(i64 8, ptr %11) #6
  call void @llvm.lifetime.end.p0(i64 4, ptr %10) #6
  %59 = load i32, ptr %5, align 4
  ret i32 %59
}