; Function Attrs: null_pointer_is_valid sspstrong uwtable
define internal noundef i32 @dissect_h460_name(ptr readnone captures(none) %0, ptr noundef readonly captures(none) %1, ptr noundef %2, ptr noundef %3) #0 {
  %5 = icmp eq ptr %3, null
  br i1 %5, label %47, label %6

6:                                                ; preds = %4
  %7 = tail call ptr @get_asn1_ctx(ptr noundef nonnull %3)
  %.not = icmp eq ptr %7, null
  br i1 %.not, label %8, label %9

8:                                                ; preds = %6
  tail call void (ptr, ...) @proto_report_dissector_bug(ptr noundef nonnull @.str.421, ptr noundef nonnull @.str.422, i32 noundef 2109, ptr noundef nonnull @.str.423) #5
  unreachable

9:                                                ; preds = %6
  %.not16 = icmp eq ptr %2, null
  br i1 %.not16, label %47, label %10

10:                                               ; preds = %9
  %11 = getelementptr inbounds nuw i8, ptr %1, i64 296
  %12 = load ptr, ptr %11, align 8
  %13 = load ptr, ptr getelementptr inbounds nuw (i8, ptr @h460_feature_tab, i64 8), align 8
  %.not32.i = icmp eq ptr %13, null
  br i1 %.not32.i, label %find_ftr.exit.thread, label %.lr.ph.i

.lr.ph.i:                                         ; preds = %10, %33
  %.033.i = phi ptr [ %34, %33 ], [ @h460_feature_tab, %10 ]
  %14 = getelementptr inbounds nuw i8, ptr %.033.i, i64 32
  %15 = load ptr, ptr %14, align 8
  %.not24.i = icmp eq ptr %15, null
  br i1 %.not24.i, label %18, label %16

16:                                               ; preds = %.lr.ph.i
  %17 = tail call i32 @strcmp(ptr noundef readonly %12, ptr noundef nonnull dereferenceable(1) %15) #6
  %.not25.i = icmp eq i32 %17, 0
  br i1 %.not25.i, label %find_ftr.exit, label %18

18:                                               ; preds = %16, %.lr.ph.i
  %19 = getelementptr inbounds nuw i8, ptr %.033.i, i64 40
  %20 = load ptr, ptr %19, align 8
  %.not26.i = icmp eq ptr %20, null
  br i1 %.not26.i, label %23, label %21

21:                                               ; preds = %18
  %22 = tail call i32 @strcmp(ptr noundef readonly %12, ptr noundef nonnull dereferenceable(1) %20) #6
  %.not27.i = icmp eq i32 %22, 0
  br i1 %.not27.i, label %find_ftr.exit, label %23

23:                                               ; preds = %21, %18
  %24 = getelementptr inbounds nuw i8, ptr %.033.i, i64 48
  %25 = load ptr, ptr %24, align 8
  %.not28.i = icmp eq ptr %25, null
  br i1 %.not28.i, label %28, label %26

26:                                               ; preds = %23
  %27 = tail call i32 @strcmp(ptr noundef readonly %12, ptr noundef nonnull dereferenceable(1) %25) #6
  %.not29.i = icmp eq i32 %27, 0
  br i1 %.not29.i, label %find_ftr.exit, label %28

28:                                               ; preds = %26, %23
  %29 = getelementptr inbounds nuw i8, ptr %.033.i, i64 56
  %30 = load ptr, ptr %29, align 8
  %.not30.i = icmp eq ptr %30, null
  br i1 %.not30.i, label %33, label %31

31:                                               ; preds = %28
  %32 = tail call i32 @strcmp(ptr noundef readonly %12, ptr noundef nonnull dereferenceable(1) %30) #6
  %.not31.i = icmp eq i32 %32, 0
  br i1 %.not31.i, label %find_ftr.exit, label %33

33:                                               ; preds = %31, %28
  %34 = getelementptr i8, ptr %.033.i, i64 72
  %35 = getelementptr i8, ptr %.033.i, i64 80
  %36 = load ptr, ptr %35, align 8
  %.not.i = icmp eq ptr %36, null
  br i1 %.not.i, label %find_ftr.exit.thread, label %.lr.ph.i, !llvm.loop !8

find_ftr.exit:                                    ; preds = %16, %21, %26, %31
  %.not17 = icmp eq ptr %.033.i, null
  br i1 %.not17, label %find_ftr.exit.thread, label %37

37:                                               ; preds = %find_ftr.exit
  %38 = getelementptr inbounds nuw i8, ptr %7, i64 24
  %39 = load ptr, ptr %38, align 8
  %40 = getelementptr inbounds nuw i8, ptr %.033.i, i64 16
  %41 = load ptr, ptr %40, align 8
  tail call void (ptr, ptr, ...) @proto_item_append_text(ptr noundef %39, ptr noundef nonnull @.str.424, ptr noundef %41)
  %42 = tail call ptr @proto_tree_get_parent(ptr noundef nonnull %2)
  %43 = tail call ptr @proto_item_get_parent(ptr noundef %42)
  %44 = load ptr, ptr %40, align 8
  tail call void (ptr, ptr, ...) @proto_item_append_text(ptr noundef %43, ptr noundef nonnull @.str.425, ptr noundef %44)
  br label %47

find_ftr.exit.thread:                             ; preds = %33, %10, %find_ftr.exit
  %45 = getelementptr inbounds nuw i8, ptr %7, i64 24
  %46 = load ptr, ptr %45, align 8
  tail call void (ptr, ptr, ...) @proto_item_append_text(ptr noundef %46, ptr noundef nonnull @.str.426, ptr noundef %12)
  br label %47

47:                                               ; preds = %9, %find_ftr.exit.thread, %37, %4
  ret i32 0
}